(lp0
cnumpy.core.multiarray
_reconstruct
p1
(cnumpy
ndarray
p2
(I0
tp3
S'b'
p4
tp5
Rp6
(I1
(L1L
tp7
cnumpy
dtype
p8
(S'f8'
p9
I0
I1
tp10
Rp11
(I3
S'<'
p12
NNNI-1
I-1
I0
tp13
bI00
S'\x86\x19\xc3\xb7\xf4\xb1\xb6\xc0'
p14
tp15
bag1
(g2
(I0
tp16
g4
tp17
Rp18
(I1
(L1L
tp19
g11
I00
S'\xa9\x0b\xac\xca\xcb\x95\xe0\xc0'
p20
tp21
bag1
(g2
(I0
tp22
g4
tp23
Rp24
(I1
(L1L
tp25
g11
I00
S'\xc9\xf6U\x85w\x0fE@'
p26
tp27
ba.