(iImageProperties
ImageProperties
p0
(dp1
S'perpendicular_lines_count'
p2
I1
sS'walls_count'
p3
I1
sS'image_path'
p4
S'SOURCE-2.jpg'
p5
sS'sky'
p6
(lp7
sS'perpendicular_lines'
p8
(lp9
(lp10
ccopy_reg
_reconstructor
p11
(ckivy.input.providers.mouse
MouseMotionEvent
p12
c__builtin__
object
p13
Ntp14
Rp15
(dp16
S'osy'
p17
F0.536741214057508
sS'osx'
p18
F0.2264957264957265
sS'osz'
p19
F0.0
sS'uid'
p20
I5
sS'push_attrs'
p21
(S'x'
p22
S'y'
p23
S'z'
p24
S'dx'
p25
S'dy'
p26
S'dz'
p27
S'ox'
p28
S'oy'
p29
S'oz'
p30
S'px'
p31
S'py'
p32
S'pz'
p33
S'pos'
p34
tp35
sS'pos'
p36
(F212.0
F336.0
tp37
sS'is_touch'
p38
I01
sS'shape'
p39
NsS'grab_exclusive_class'
p40
NsS'grab_current'
p41
NsS'id'
p42
S'mouse5'
p43
sS'push_attrs_stack'
p44
(lp45
sS'dsz'
p46
F0.0
sS'dsx'
p47
F0.0
sS'dsy'
p48
F0.0
sS'pz'
p49
F0.0
sS'px'
p50
F212.0
sS'py'
p51
F336.0
sS'double_tap_time'
p52
I0
sS'triple_tap_time'
p53
I0
sS'is_double_tap'
p54
I00
sS'is_triple_tap'
p55
I00
sS'grab_list'
p56
(lp57
sS'grab_state'
p58
I00
sS'time_end'
p59
F1446049787.722
sS'psz'
p60
F0.0
sS'psx'
p61
F0.2264957264957265
sS'psy'
p62
F0.536741214057508
sS'dz'
p63
F0.0
sS'dx'
p64
F0.0
sS'dy'
p65
F0.0
sS'device'
p66
S'mouse'
p67
sS'time_start'
p68
F1446049787.659
sS'sz'
p69
F0.0
sS'sy'
p70
F0.536741214057508
sS'sx'
p71
F0.2264957264957265
sS'button'
p72
S'left'
p73
sS'time_update'
p74
F1446049787.659
sS'ud'
p75
g11
(ckivy.input.motionevent
EnhancedDictionary
p76
c__builtin__
dict
p77
(dp78
tp79
Rp80
sS'profile'
p81
(lp82
S'pos'
p83
aS'button'
p84
asS'oz'
p85
F0.0
sS'oy'
p86
F336.0
sS'ox'
p87
F212.0
sS'y'
p88
F336.0
sS'x'
p89
F212.0
sS'z'
p90
F0.0
sbag11
(g12
g13
Ntp91
Rp92
(dp93
g17
F0.4249201277955271
sg18
F0.37072649572649574
sg19
F0.0
sg20
I6
sg21
g35
sg36
(F347.0
F266.0
tp94
sg38
I01
sg39
Nsg40
Nsg41
Nsg42
S'mouse6'
p95
sg44
(lp96
sg46
F0.0
sg47
F0.0
sg48
F0.0
sg49
F0.0
sg50
F347.0
sg51
F266.0
sg52
I0
sg53
I0
sg54
I00
sg55
I00
sg56
(lp97
sg58
I00
sg59
F1446049787.967
sg60
F0.0
sg61
F0.37072649572649574
sg62
F0.4249201277955271
sg63
F0.0
sg64
F0.0
sg65
F0.0
sg66
g67
sg68
F1446049787.889
sg69
F0.0
sg70
F0.4249201277955271
sg71
F0.37072649572649574
sg72
g73
sg74
F1446049787.889
sg75
g11
(g76
g77
(dp98
tp99
Rp100
sg81
(lp101
g83
ag84
asg85
F0.0
sg86
F266.0
sg87
F347.0
sg88
F266.0
sg89
F347.0
sg90
F0.0
sbaasS'walls'
p102
(lp103
(lp104
g11
(g12
g13
Ntp105
Rp106
(dp107
g17
F0.7300319488817891
sg18
F0.34615384615384615
sg19
F0.0
sg20
I8
sg21
g35
sg36
(F324.0
F457.0
tp108
sg38
I01
sg39
Nsg40
Nsg41
Nsg42
S'mouse8'
p109
sg44
(lp110
sg46
F0.0
sg47
F0.0
sg48
F0.0
sg49
F0.0
sg50
F324.0
sg51
F457.0
sg52
I0
sg53
I0
sg54
I00
sg55
I00
sg56
(lp111
sg58
I00
sg59
F1446049789.019
sg60
F0.0
sg61
F0.34615384615384615
sg62
F0.7300319488817891
sg63
F0.0
sg64
F0.0
sg65
F0.0
sg66
g67
sg68
F1446049788.968
sg69
F0.0
sg70
F0.7300319488817891
sg71
F0.34615384615384615
sg72
g73
sg74
F1446049788.968
sg75
g11
(g76
g77
(dp112
tp113
Rp114
sg81
(lp115
g83
ag84
asg85
F0.0
sg86
F457.0
sg87
F324.0
sg88
F457.0
sg89
F324.0
sg90
F0.0
sbag11
(g12
g13
Ntp116
Rp117
(dp118
g17
F0.5623003194888179
sg18
F0.26175213675213677
sg19
F0.0
sg20
I9
sg21
g35
sg36
(F245.0
F352.0
tp119
sg38
I01
sg39
Nsg40
Nsg41
Nsg42
S'mouse9'
p120
sg44
(lp121
sg46
F0.0
sg47
F0.0
sg48
F0.0
sg49
F0.0
sg50
F245.0
sg51
F352.0
sg52
I0
sg53
I0
sg54
I00
sg55
I00
sg56
(lp122
sg58
I00
sg59
F1446049789.316
sg60
F0.0
sg61
F0.26175213675213677
sg62
F0.5623003194888179
sg63
F0.0
sg64
F0.0
sg65
F0.0
sg66
g67
sg68
F1446049789.237
sg69
F0.0
sg70
F0.5623003194888179
sg71
F0.26175213675213677
sg72
g73
sg74
F1446049789.237
sg75
g11
(g76
g77
(dp123
tp124
Rp125
sg81
(lp126
g83
ag84
asg85
F0.0
sg86
F352.0
sg87
F245.0
sg88
F352.0
sg89
F245.0
sg90
F0.0
sbag11
(g12
g13
Ntp127
Rp128
(dp129
g17
F0.4488817891373802
sg18
F0.2532051282051282
sg19
F0.0
sg20
I10
sg21
g35
sg36
(F237.0
F281.0
tp130
sg38
I01
sg39
Nsg40
Nsg41
Nsg42
S'mouse10'
p131
sg44
(lp132
sg46
F0.0
sg47
F0.0
sg48
F0.0
sg49
F0.0
sg50
F237.0
sg51
F281.0
sg52
I0
sg53
I0
sg54
I00
sg55
I00
sg56
(lp133
sg58
I00
sg59
F1446049789.599
sg60
F0.0
sg61
F0.2532051282051282
sg62
F0.4488817891373802
sg63
F0.0
sg64
F0.0
sg65
F0.0
sg66
g67
sg68
F1446049789.509
sg69
F0.0
sg70
F0.4488817891373802
sg71
F0.2532051282051282
sg72
g73
sg74
F1446049789.509
sg75
g11
(g76
g77
(dp134
tp135
Rp136
sg81
(lp137
g83
ag84
asg85
F0.0
sg86
F281.0
sg87
F237.0
sg88
F281.0
sg89
F237.0
sg90
F0.0
sbag11
(g12
g13
Ntp138
Rp139
(dp140
g17
F0.389776357827476
sg18
F0.43162393162393164
sg19
F0.0
sg20
I11
sg21
g35
sg36
(F404.0
F243.99999999999997
tp141
sg38
I01
sg39
Nsg40
Nsg41
Nsg42
S'mouse11'
p142
sg44
(lp143
sg46
F0.0
sg47
F0.0
sg48
F0.0
sg49
F0.0
sg50
F404.0
sg51
F243.99999999999997
sg52
I0
sg53
I0
sg54
I00
sg55
I00
sg56
(lp144
sg58
I00
sg59
F1446049789.908
sg60
F0.0
sg61
F0.43162393162393164
sg62
F0.389776357827476
sg63
F0.0
sg64
F0.0
sg65
F0.0
sg66
g67
sg68
F1446049789.818
sg69
F0.0
sg70
F0.389776357827476
sg71
F0.43162393162393164
sg72
g73
sg74
F1446049789.818
sg75
g11
(g76
g77
(dp145
tp146
Rp147
sg81
(lp148
g83
ag84
asg85
F0.0
sg86
F243.99999999999997
sg87
F404.0
sg88
F243.99999999999997
sg89
F404.0
sg90
F0.0
sbag11
(g12
g13
Ntp149
Rp150
(dp151
g17
F0.7156549520766773
sg18
F0.6314102564102564
sg19
F0.0
sg20
I12
sg21
g35
sg36
(F591.0
F448.0
tp152
sg38
I01
sg39
Nsg40
Nsg41
Nsg42
S'mouse12'
p153
sg44
(lp154
sg46
F0.0
sg47
F0.0
sg48
F0.0
sg49
F0.0
sg50
F591.0
sg51
F448.0
sg52
I0
sg53
I0
sg54
I00
sg55
I00
sg56
(lp155
sg58
I00
sg59
F1446049790.229
sg60
F0.0
sg61
F0.6314102564102564
sg62
F0.7156549520766773
sg63
F0.0
sg64
F0.0
sg65
F0.0
sg66
g67
sg68
F1446049790.152
sg69
F0.0
sg70
F0.7156549520766773
sg71
F0.6314102564102564
sg72
g73
sg74
F1446049790.152
sg75
g11
(g76
g77
(dp156
tp157
Rp158
sg81
(lp159
g83
ag84
asg85
F0.0
sg86
F448.0
sg87
F591.0
sg88
F448.0
sg89
F591.0
sg90
F0.0
sbaasS'parallel_lines_on_ground'
p160
(lp161
(lp162
g11
(g12
g13
Ntp163
Rp164
(dp165
g17
F0.7124600638977636
sg18
F0.26495726495726496
sg19
F0.0
sg20
I2
sg21
g35
sg36
(F248.0
F446.0
tp166
sg38
I01
sg39
Nsg40
Nsg41
Nsg42
S'mouse2'
p167
sg44
(lp168
sg46
F0.0
sg47
F0.0
sg48
F0.0
sg49
F0.0
sg50
F248.0
sg51
F446.0
sg52
I0
sg53
I0
sg54
I00
sg55
I00
sg56
(lp169
sg58
I00
sg59
F1446049786.596
sg60
F0.0
sg61
F0.26495726495726496
sg62
F0.7124600638977636
sg63
F0.0
sg64
F0.0
sg65
F0.0
sg66
g67
sg68
F1446049786.557
sg69
F0.0
sg70
F0.7124600638977636
sg71
F0.26495726495726496
sg72
g73
sg74
F1446049786.557
sg75
g11
(g76
g77
(dp170
tp171
Rp172
sg81
(lp173
g83
ag84
asg85
F0.0
sg86
F446.0
sg87
F248.0
sg88
F446.0
sg89
F248.0
sg90
F0.0
sbag11
(g12
g13
Ntp174
Rp175
(dp176
g17
F0.5207667731629393
sg18
F0.3952991452991453
sg19
F0.0
sg20
I3
sg21
g35
sg36
(F370.0
F325.0
tp177
sg38
I01
sg39
Nsg40
Nsg41
Nsg42
S'mouse3'
p178
sg44
(lp179
sg46
F0.0
sg47
F0.0
sg48
F-0.0015974440894568342
sg49
F0.0
sg50
F370.0
sg51
F326.0
sg52
I0
sg53
I0
sg54
I00
sg55
I00
sg56
(lp180
sg58
I00
sg59
F1446049786.828
sg60
F0.0
sg61
F0.3952991452991453
sg62
F0.5207667731629393
sg63
F0.0
sg64
F0.0
sg65
F-1.0
sg66
g67
sg68
F1446049786.751
sg69
F0.0
sg70
F0.5191693290734825
sg71
F0.3952991452991453
sg72
g73
sg74
F1446049786.765
sg75
g11
(g76
g77
(dp181
tp182
Rp183
sg81
(lp184
g83
ag84
asg85
F0.0
sg86
F326.0
sg87
F370.0
sg88
F325.0
sg89
F370.0
sg90
F0.0
sbaasS'rp'
p185
(iImageProperties
RectProperties
p186
(dp187
S'percentage'
p188
(I1
I1
tp189
sS'location'
p190
(I0
I0
tp191
sS'size'
p192
(I0
I0
tp193
sbsS'cp'
p194
(iImageProperties
CameraProperties
p195
(dp196
bsS'sky_count'
p197
S'None'
p198
sS'parallel_lines_on_ground_count'
p199
I1
sb.