(lp0
cnumpy.core.multiarray
_reconstruct
p1
(cnumpy
ndarray
p2
(I0
tp3
S'b'
p4
tp5
Rp6
(I1
(L1L
tp7
cnumpy
dtype
p8
(S'f8'
p9
I0
I1
tp10
Rp11
(I3
S'<'
p12
NNNI-1
I-1
I0
tp13
bI00
S'X\xe8\xb5/\xb9\xa29@'
p14
tp15
bag1
(g2
(I0
tp16
g4
tp17
Rp18
(I1
(L1L
tp19
g11
I00
S'\x15A\xb1\xe0\xadK5@'
p20
tp21
bag1
(g2
(I0
tp22
g4
tp23
Rp24
(I1
(L1L
tp25
g11
I00
S')xs_\xfc\x1a\xb9?'
p26
tp27
ba.