(lp0
cnumpy.core.multiarray
_reconstruct
p1
(cnumpy
ndarray
p2
(I0
tp3
S'b'
p4
tp5
Rp6
(I1
(L1L
tp7
cnumpy
dtype
p8
(S'f8'
p9
I0
I1
tp10
Rp11
(I3
S'<'
p12
NNNI-1
I-1
I0
tp13
bI00
S'\xc8\x18c\xef\xda\xf29@'
p14
tp15
bag1
(g2
(I0
tp16
g4
tp17
Rp18
(I1
(L1L
tp19
g11
I00
S'\x89\xd6\xbd~\xbcV2@'
p20
tp21
bag1
(g2
(I0
tp22
g4
tp23
Rp24
(I1
(L1L
tp25
g11
I00
S"\x04'\x1fju\xd1\x18\xc0"
p26
tp27
bag1
(g2
(I0
tp28
g4
tp29
Rp30
(I1
(L1L
tp31
g11
I00
S'>\xb6B\x94:\x02\xa4?'
p32
tp33
ba.